; Function Attrs: inlinehint mustprogress optsize uwtable
define internal noundef nonnull ptr @"_ZZN8nanobind6detail11func_createILb0ELb1EZL32nanobind_init_test_functions_extRNS_7module_EE4$_26vJETpTnmJEJNS_5scopeENS_4nameEEEEP7_objectOT1_PFT2_DpT3_ESt16integer_sequenceImJXspT4_EEEDpRKT5_ENUlPvPS8_PhNS_9rv_policyEPNS0_12cleanup_listEE_8__invokeESM_SN_SO_SP_SR_"(ptr readnone captures(none) %0, ptr readnone captures(none) %1, ptr readnone captures(none) %2, i32 %3, ptr readnone captures(none) %4) #15 align 2 personality ptr @__gxx_personality_v0 {
  %6 = alloca %"class.nanobind::str", align 8
  %7 = alloca %"class.nanobind::str", align 8
  call void @llvm.lifetime.start.p0(i64 8, ptr nonnull %6) #27
  %8 = tail call noundef ptr @_ZN8nanobind6detail13str_from_cstrEPKc(ptr noundef nonnull @.str.128) #28
  store ptr %8, ptr %6, align 8
  invoke void @_ZN8nanobind6detail5printEP7_objectS2_S2_(ptr noundef %8, ptr noundef null, ptr noundef null) #28
          to label %_ZN8nanobind5printEPKcNS_6handleES2_.exit.i unwind label %9

common.resume.i:                                  ; preds = %14, %9
  %common.resume.op.i = phi { ptr, i32 } [ %10, %9 ], [ %15, %14 ]
  resume { ptr, i32 } %common.resume.op.i

9:                                                ; preds = %5
  %10 = landingpad { ptr, i32 }
          cleanup
  %11 = call noundef nonnull align 8 dereferenceable(8) ptr @_ZNKR8nanobind6handle7dec_refEv(ptr noundef nonnull align 8 dereferenceable(8) %6) #31
  call void @llvm.lifetime.end.p0(i64 8, ptr nonnull %6) #27
  br label %common.resume.i

_ZN8nanobind5printEPKcNS_6handleES2_.exit.i:      ; preds = %5
  %12 = call noundef nonnull align 8 dereferenceable(8) ptr @_ZNKR8nanobind6handle7dec_refEv(ptr noundef nonnull align 8 dereferenceable(8) %6) #31
  call void @llvm.lifetime.end.p0(i64 8, ptr nonnull %6) #27
  call void @llvm.lifetime.start.p0(i64 8, ptr nonnull %7) #27
  %13 = call noundef ptr @_ZN8nanobind6detail13str_from_cstrEPKc(ptr noundef nonnull @.str.129) #28
  store ptr %13, ptr %7, align 8
  invoke void @_ZN8nanobind6detail5printEP7_objectS2_S2_(ptr noundef %13, ptr noundef null, ptr noundef null) #28
          to label %"_ZZL32nanobind_init_test_functions_extRN8nanobind7module_EENK4$_26clEv.exit" unwind label %14

14:                                               ; preds = %_ZN8nanobind5printEPKcNS_6handleES2_.exit.i
  %15 = landingpad { ptr, i32 }
          cleanup
  %16 = call noundef nonnull align 8 dereferenceable(8) ptr @_ZNKR8nanobind6handle7dec_refEv(ptr noundef nonnull align 8 dereferenceable(8) %7) #31
  call void @llvm.lifetime.end.p0(i64 8, ptr nonnull %7) #27
  br label %common.resume.i

"_ZZL32nanobind_init_test_functions_extRN8nanobind7module_EENK4$_26clEv.exit": ; preds = %_ZN8nanobind5printEPKcNS_6handleES2_.exit.i
  %17 = call noundef nonnull align 8 dereferenceable(8) ptr @_ZNKR8nanobind6handle7dec_refEv(ptr noundef nonnull align 8 dereferenceable(8) %7) #31
  call void @llvm.lifetime.end.p0(i64 8, ptr nonnull %7) #27
  %18 = load i64, ptr @_Py_NoneStruct, align 8, !tbaa !59
  %19 = add nsw i64 %18, 1
  store i64 %19, ptr @_Py_NoneStruct, align 8, !tbaa !59
  ret ptr @_Py_NoneStruct
}